(dp0
(I8
I14
tp1
(lp2
(lp3
I2
aI6
aas(I6
I9
tp4
(lp5
(lp6
I4
aI3
aas(I1
I3
tp7
(lp8
(lp9
I1
aI4
aas(I14
I16
tp10
(lp11
(lp12
I6
aI2
aas(I3
I15
tp13
(lp14
(lp15
I4
aI3
aas(I12
I7
tp16
(lp17
(lp18
I0
aI4
aas(I10
I6
tp19
(lp20
(lp21
I5
aI4
aas(I5
I18
tp22
(lp23
(lp24
I5
aI2
aas(I17
I0
tp25
(lp26
(lp27
I5
aas(I13
I17
tp28
(lp29
(lp30
I1
aI5
aas(I2
I13
tp31
(lp32
(lp33
I2
aI5
aI1
aa(lp34
I2
aI6
aI1
aas(I11
I1
tp35
(lp36
(lp37
I2
aI5
aI1
aa(lp38
I2
aI6
aI1
aas(I0
I5
tp39
(lp40
(lp41
I5
aas(I7
I10
tp42
(lp43
(lp44
I4
aI5
aas(I4
I2
tp45
(lp46
(lp47
I0
aI2
aas(I15
I4
tp48
(lp49
(lp50
I3
aI4
aI0
aa(lp51
I3
aI7
aI0
aas(I18
I8
tp52
(lp53
(lp54
I2
aas(I9
I19
tp55
(lp56
(lp57
I3
aas(I19
I11
tp58
(lp59
(lp60
I3
aI6
aI2
aa(lp61
I3
aI7
aI2
aas(I16
I12
tp62
(lp63
(lp64
I2
aI0
aas.