(dp0
(I16
I6
tp1
(lp2
(lp3
I5
aas(I4
I7
tp4
(lp5
(lp6
I1
aI3
aa(lp7
I1
aI4
aI3
aa(lp8
I1
aI0
aI4
aI3
aa(lp9
I1
aI0
aI7
aI3
aa(lp10
I1
aI6
aI2
aI3
aa(lp11
I1
aI6
aI7
aI3
aa(lp12
I1
aI0
aI5
aI2
aI3
aa(lp13
I1
aI0
aI5
aI4
aI3
aas(I9
I0
tp14
(lp15
(lp16
I2
aI3
aa(lp17
I2
aI7
aI3
aa(lp18
I2
aI5
aI4
aI3
aa(lp19
I2
aI6
aI1
aI3
aa(lp20
I2
aI6
aI7
aI3
aa(lp21
I2
aI5
aI0
aI1
aI3
aa(lp22
I2
aI5
aI0
aI4
aI3
aa(lp23
I2
aI5
aI0
aI7
aI3
aas(I13
I2
tp24
(lp25
(lp26
I7
aI0
aI5
aa(lp27
I7
aI2
aI5
aa(lp28
I7
aI6
aI5
aa(lp29
I7
aI0
aI4
aI5
aa(lp30
I7
aI2
aI6
aI5
aa(lp31
I7
aI3
aI2
aI5
aa(lp32
I7
aI3
aI4
aI5
aa(lp33
I7
aI6
aI2
aI5
aas(I14
I16
tp34
(lp35
(lp36
I5
aas(I1
I19
tp37
(lp38
(lp39
I6
aI2
aa(lp40
I6
aI5
aI2
aa(lp41
I6
aI7
aI2
aa(lp42
I6
aI1
aI3
aI2
aa(lp43
I6
aI7
aI3
aI2
aa(lp44
I6
aI1
aI0
aI5
aI2
aa(lp45
I6
aI1
aI0
aI7
aI2
aa(lp46
I6
aI1
aI3
aI7
aI2
aas(I3
I13
tp47
(lp48
(lp49
I3
aI7
aa(lp50
I3
aI2
aI7
aa(lp51
I3
aI1
aI0
aI7
aa(lp52
I3
aI1
aI6
aI7
aa(lp53
I3
aI2
aI6
aI7
aa(lp54
I3
aI4
aI0
aI7
aa(lp55
I3
aI1
aI4
aI0
aI7
aa(lp56
I3
aI1
aI6
aI2
aI7
aas(I6
I11
tp57
(lp58
(lp59
I5
aI0
aI1
aa(lp60
I5
aI4
aI1
aa(lp61
I5
aI6
aI1
aa(lp62
I5
aI0
aI4
aI1
aa(lp63
I5
aI2
aI3
aI1
aa(lp64
I5
aI2
aI6
aI1
aa(lp65
I5
aI4
aI0
aI1
aa(lp66
I5
aI4
aI3
aI1
aas(I2
I8
tp67
(lp68
(lp69
I5
aI2
aI3
aa(lp70
I5
aI4
aI3
aa(lp71
I5
aI0
aI1
aI3
aa(lp72
I5
aI0
aI4
aI3
aa(lp73
I5
aI0
aI7
aI3
aa(lp74
I5
aI2
aI7
aI3
aa(lp75
I5
aI4
aI1
aI3
aa(lp76
I5
aI6
aI1
aI3
aas(I10
I17
tp77
(lp78
(lp79
I7
aI2
aa(lp80
I7
aI3
aI2
aa(lp81
I7
aI6
aI2
aa(lp82
I7
aI0
aI5
aI2
aa(lp83
I7
aI6
aI5
aI2
aa(lp84
I7
aI0
aI1
aI3
aI2
aa(lp85
I7
aI0
aI1
aI6
aI2
aa(lp86
I7
aI0
aI4
aI3
aI2
aas(I18
I15
tp87
(lp88
(lp89
I2
aI6
aa(lp90
I2
aI5
aI6
aa(lp91
I2
aI7
aI6
aa(lp92
I2
aI3
aI1
aI6
aa(lp93
I2
aI3
aI7
aI6
aa(lp94
I2
aI3
aI4
aI1
aI6
aa(lp95
I2
aI3
aI4
aI5
aI6
aa(lp96
I2
aI5
aI0
aI1
aI6
aas(I8
I10
tp97
(lp98
(lp99
I3
aI7
aa(lp100
I3
aI2
aI7
aa(lp101
I3
aI1
aI0
aI7
aa(lp102
I3
aI1
aI6
aI7
aa(lp103
I3
aI2
aI6
aI7
aa(lp104
I3
aI4
aI0
aI7
aa(lp105
I3
aI1
aI4
aI0
aI7
aa(lp106
I3
aI1
aI6
aI2
aI7
aas(I5
I14
tp107
(lp108
(lp109
I5
aas(I12
I18
tp110
(lp111
(lp112
I3
aI2
aa(lp113
I3
aI7
aI2
aa(lp114
I3
aI1
aI6
aI2
aa(lp115
I3
aI4
aI5
aI2
aa(lp116
I3
aI7
aI6
aI2
aa(lp117
I3
aI1
aI0
aI5
aI2
aa(lp118
I3
aI1
aI0
aI7
aI2
aa(lp119
I3
aI1
aI4
aI5
aI2
aas(I11
I1
tp120
(lp121
(lp122
I1
aI6
aa(lp123
I1
aI0
aI5
aI6
aa(lp124
I1
aI0
aI7
aI6
aa(lp125
I1
aI3
aI2
aI6
aa(lp126
I1
aI3
aI7
aI6
aa(lp127
I1
aI4
aI5
aI6
aa(lp128
I1
aI0
aI4
aI5
aI6
aa(lp129
I1
aI0
aI5
aI2
aI6
aas(I0
I5
tp130
(lp131
(lp132
I3
aI2
aI5
aa(lp133
I3
aI4
aI5
aa(lp134
I3
aI1
aI0
aI5
aa(lp135
I3
aI1
aI4
aI5
aa(lp136
I3
aI1
aI6
aI5
aa(lp137
I3
aI2
aI6
aI5
aa(lp138
I3
aI4
aI0
aI5
aa(lp139
I3
aI7
aI0
aI5
aas(I19
I3
tp140
(lp141
(lp142
I2
aI3
aa(lp143
I2
aI7
aI3
aa(lp144
I2
aI5
aI4
aI3
aa(lp145
I2
aI6
aI1
aI3
aa(lp146
I2
aI6
aI7
aI3
aa(lp147
I2
aI5
aI0
aI1
aI3
aa(lp148
I2
aI5
aI0
aI4
aI3
aa(lp149
I2
aI5
aI0
aI7
aI3
aas(I17
I12
tp150
(lp151
(lp152
I2
aI3
aa(lp153
I2
aI7
aI3
aa(lp154
I2
aI5
aI4
aI3
aa(lp155
I2
aI6
aI1
aI3
aa(lp156
I2
aI6
aI7
aI3
aa(lp157
I2
aI5
aI0
aI1
aI3
aa(lp158
I2
aI5
aI0
aI4
aI3
aa(lp159
I2
aI5
aI0
aI7
aI3
aas(I15
I4
tp160
(lp161
(lp162
I6
aI1
aa(lp163
I6
aI2
aI3
aI1
aa(lp164
I6
aI5
aI0
aI1
aa(lp165
I6
aI5
aI4
aI1
aa(lp166
I6
aI7
aI0
aI1
aa(lp167
I6
aI7
aI3
aI1
aa(lp168
I6
aI2
aI3
aI4
aI1
aa(lp169
I6
aI2
aI5
aI0
aI1
aas(I7
I9
tp170
(lp171
(lp172
I3
aI2
aa(lp173
I3
aI7
aI2
aa(lp174
I3
aI1
aI6
aI2
aa(lp175
I3
aI4
aI5
aI2
aa(lp176
I3
aI7
aI6
aI2
aa(lp177
I3
aI1
aI0
aI5
aI2
aa(lp178
I3
aI1
aI0
aI7
aI2
aa(lp179
I3
aI1
aI4
aI5
aI2
aas.