(dp0
(I14
I7
tp1
(lp2
(lp3
I0
aI2
aI7
aa(lp4
I0
aI5
aI7
aa(lp5
I0
aI1
aI4
aI7
aa(lp6
I0
aI1
aI6
aI7
aa(lp7
I0
aI2
aI4
aI7
aa(lp8
I0
aI2
aI6
aI7
aa(lp9
I0
aI3
aI4
aI7
aa(lp10
I0
aI3
aI5
aI7
aas(I10
I4
tp11
(lp12
(lp13
I3
aI4
aa(lp14
I3
aI1
aI4
aa(lp15
I3
aI0
aI1
aI4
aa(lp16
I3
aI0
aI2
aI4
aa(lp17
I3
aI5
aI7
aI4
aa(lp18
I3
aI0
aI2
aI7
aI4
aa(lp19
I3
aI0
aI5
aI7
aI4
aa(lp20
I3
aI1
aI0
aI2
aI4
aas(I13
I15
tp21
(lp22
(lp23
I4
aI7
aa(lp24
I4
aI2
aI7
aa(lp25
I4
aI1
aI6
aI7
aa(lp26
I4
aI2
aI6
aI7
aa(lp27
I4
aI3
aI5
aI7
aa(lp28
I4
aI1
aI0
aI2
aI7
aa(lp29
I4
aI1
aI0
aI5
aI7
aa(lp30
I4
aI1
aI3
aI5
aI7
aas(I7
I10
tp31
(lp32
(lp33
I7
aI4
aI3
aa(lp34
I7
aI5
aI3
aa(lp35
I7
aI2
aI0
aI3
aa(lp36
I7
aI2
aI4
aI3
aa(lp37
I7
aI4
aI1
aI3
aa(lp38
I7
aI5
aI0
aI3
aa(lp39
I7
aI6
aI1
aI3
aa(lp40
I7
aI6
aI5
aI3
aas(I15
I2
tp41
(lp42
(lp43
I7
aI6
aa(lp44
I7
aI2
aI6
aa(lp45
I7
aI5
aI6
aa(lp46
I7
aI4
aI1
aI6
aa(lp47
I7
aI4
aI2
aI6
aa(lp48
I7
aI2
aI0
aI1
aI6
aa(lp49
I7
aI2
aI0
aI5
aI6
aa(lp50
I7
aI2
aI4
aI1
aI6
aas(I4
I5
tp51
(lp52
(lp53
I4
aI7
aa(lp54
I4
aI2
aI7
aa(lp55
I4
aI1
aI6
aI7
aa(lp56
I4
aI2
aI6
aI7
aa(lp57
I4
aI3
aI5
aI7
aa(lp58
I4
aI1
aI0
aI2
aI7
aa(lp59
I4
aI1
aI0
aI5
aI7
aa(lp60
I4
aI1
aI3
aI5
aI7
aas(I9
I11
tp61
(lp62
(lp63
I6
aI2
aa(lp64
I6
aI7
aI2
aa(lp65
I6
aI1
aI0
aI2
aa(lp66
I6
aI1
aI4
aI2
aa(lp67
I6
aI5
aI0
aI2
aa(lp68
I6
aI5
aI7
aI2
aa(lp69
I6
aI7
aI4
aI2
aa(lp70
I6
aI1
aI3
aI0
aI2
aas(I16
I3
tp71
(lp72
(lp73
I5
aI0
aI2
aa(lp74
I5
aI6
aI2
aa(lp75
I5
aI7
aI2
aa(lp76
I5
aI3
aI0
aI2
aa(lp77
I5
aI3
aI4
aI2
aa(lp78
I5
aI6
aI7
aI2
aa(lp79
I5
aI7
aI4
aI2
aa(lp80
I5
aI7
aI6
aI2
aas(I8
I0
tp81
(lp82
(lp83
I1
aI4
aa(lp84
I1
aI3
aI4
aa(lp85
I1
aI0
aI2
aI4
aa(lp86
I1
aI0
aI3
aI4
aa(lp87
I1
aI6
aI2
aI4
aa(lp88
I1
aI6
aI7
aI4
aa(lp89
I1
aI0
aI2
aI7
aI4
aa(lp90
I1
aI0
aI5
aI3
aI4
aas(I5
I18
tp91
(lp92
(lp93
I7
aI2
aI0
aa(lp94
I7
aI5
aI0
aa(lp95
I7
aI4
aI1
aI0
aa(lp96
I7
aI4
aI2
aI0
aa(lp97
I7
aI4
aI3
aI0
aa(lp98
I7
aI5
aI3
aI0
aa(lp99
I7
aI6
aI1
aI0
aa(lp100
I7
aI6
aI2
aI0
aas(I12
I19
tp101
(lp102
(lp103
I3
aI4
aa(lp104
I3
aI1
aI4
aa(lp105
I3
aI0
aI1
aI4
aa(lp106
I3
aI0
aI2
aI4
aa(lp107
I3
aI5
aI7
aI4
aa(lp108
I3
aI0
aI2
aI7
aI4
aa(lp109
I3
aI0
aI5
aI7
aI4
aa(lp110
I3
aI1
aI0
aI2
aI4
aas(I17
I14
tp111
(lp112
(lp113
I5
aI0
aa(lp114
I5
aI3
aI0
aa(lp115
I5
aI3
aI1
aI0
aa(lp116
I5
aI6
aI1
aI0
aa(lp117
I5
aI6
aI2
aI0
aa(lp118
I5
aI7
aI2
aI0
aa(lp119
I5
aI3
aI4
aI1
aI0
aa(lp120
I5
aI3
aI4
aI2
aI0
aas(I0
I16
tp121
(lp122
(lp123
I4
aI3
aI5
aa(lp124
I4
aI7
aI5
aa(lp125
I4
aI1
aI0
aI5
aa(lp126
I4
aI1
aI3
aI5
aa(lp127
I4
aI1
aI6
aI5
aa(lp128
I4
aI2
aI0
aI5
aa(lp129
I4
aI2
aI6
aI5
aa(lp130
I4
aI2
aI7
aI5
aas(I2
I1
tp131
(lp132
(lp133
I6
aI1
aI0
aa(lp134
I6
aI2
aI0
aa(lp135
I6
aI5
aI0
aa(lp136
I6
aI1
aI3
aI0
aa(lp137
I6
aI5
aI3
aI0
aa(lp138
I6
aI7
aI2
aI0
aa(lp139
I6
aI7
aI5
aI0
aa(lp140
I6
aI1
aI3
aI5
aI0
aas(I3
I6
tp141
(lp142
(lp143
I2
aI0
aI3
aa(lp144
I2
aI4
aI3
aa(lp145
I2
aI0
aI1
aI3
aa(lp146
I2
aI0
aI5
aI3
aa(lp147
I2
aI4
aI1
aI3
aa(lp148
I2
aI6
aI1
aI3
aa(lp149
I2
aI6
aI5
aI3
aa(lp150
I2
aI7
aI4
aI3
aas(I6
I12
tp151
(lp152
(lp153
I3
aas(I18
I8
tp154
(lp155
(lp156
I0
aI1
aa(lp157
I0
aI3
aI1
aa(lp158
I0
aI2
aI4
aI1
aa(lp159
I0
aI2
aI6
aI1
aa(lp160
I0
aI3
aI4
aI1
aa(lp161
I0
aI5
aI3
aI1
aa(lp162
I0
aI5
aI6
aI1
aa(lp163
I0
aI2
aI4
aI3
aI1
aas(I19
I13
tp164
(lp165
(lp166
I4
aas(I11
I17
tp167
(lp168
(lp169
I2
aI0
aI5
aa(lp170
I2
aI6
aI5
aa(lp171
I2
aI7
aI5
aa(lp172
I2
aI0
aI3
aI5
aa(lp173
I2
aI4
aI3
aI5
aa(lp174
I2
aI4
aI7
aI5
aa(lp175
I2
aI6
aI7
aI5
aa(lp176
I2
aI7
aI6
aI5
aas(I1
I9
tp177
(lp178
(lp179
I0
aI1
aI6
aa(lp180
I0
aI2
aI6
aa(lp181
I0
aI5
aI6
aa(lp182
I0
aI2
aI7
aI6
aa(lp183
I0
aI3
aI1
aI6
aa(lp184
I0
aI3
aI5
aI6
aa(lp185
I0
aI5
aI7
aI6
aa(lp186
I0
aI1
aI3
aI5
aI6
aas.